; Function Attrs: mustprogress uwtable
define noalias noundef nonnull ptr @lean_uv_udp_set_membership(ptr noundef readonly captures(none) %0, ptr noundef %1, ptr noundef %2, i8 noundef zeroext %3, ptr noundef readnone captures(none) %4) local_unnamed_addr #0 {
  %6 = alloca [16 x i8], align 16
  %7 = alloca [16 x i8], align 16
  %8 = getelementptr i8, ptr %0, i64 16
  %.val = load ptr, ptr %8, align 8, !tbaa !40
  call void @llvm.lifetime.start.p0(i64 16, ptr nonnull %6) #15
  call void @_ZN4lean17lean_ip_addr_ntopEP11lean_objectPcm(ptr noundef %1, ptr noundef nonnull %6, i64 noundef 16)
  %9 = ptrtoint ptr %2 to i64
  %10 = and i64 %9, 1
  %.not = icmp eq i64 %10, 0
  call void @llvm.lifetime.start.p0(i64 16, ptr nonnull %7) #15
  br i1 %.not, label %11, label %13

11:                                               ; preds = %5
  %12 = getelementptr i8, ptr %2, i64 8
  %.val12 = load ptr, ptr %12, align 8, !tbaa !30
  call void @_ZN4lean17lean_ip_addr_ntopEP11lean_objectPcm(ptr noundef %.val12, ptr noundef nonnull %7, i64 noundef 16)
  br label %13

13:                                               ; preds = %11, %5
  %14 = phi ptr [ %7, %11 ], [ null, %5 ]
  call void @_ZN4lean15event_loop_lockEPNS_12event_loop_tE(ptr noundef nonnull @_ZN4lean9global_evE)
  %15 = load ptr, ptr %.val, align 8, !tbaa !20
  %16 = zext i8 %3 to i32
  %17 = call i32 @uv_udp_set_membership(ptr noundef %15, ptr noundef nonnull %6, ptr noundef %14, i32 noundef %16)
  call void @_ZN4lean17event_loop_unlockEPNS_12event_loop_tE(ptr noundef nonnull @_ZN4lean9global_evE)
  %18 = icmp slt i32 %17, 0
  br i1 %18, label %19, label %24

19:                                               ; preds = %13
  %20 = call ptr @lean_decode_uv_error(i32 noundef %17, ptr noundef null)
  call void @lean_inc_heartbeat()
  %21 = call noalias ptr @mi_malloc_small(i64 noundef 24) #15
  %22 = icmp eq ptr %21, null
  br i1 %22, label %23, label %_ZL23lean_io_result_mk_errorP11lean_object.exit

23:                                               ; preds = %19
  call void @lean_internal_panic_out_of_memory() #16
  unreachable

24:                                               ; preds = %13
  call void @lean_inc_heartbeat()
  %25 = call noalias ptr @mi_malloc_small(i64 noundef 24) #15
  %26 = icmp eq ptr %25, null
  br i1 %26, label %27, label %_ZL23lean_io_result_mk_errorP11lean_object.exit

27:                                               ; preds = %24
  call void @lean_internal_panic_out_of_memory() #16
  unreachable

_ZL23lean_io_result_mk_errorP11lean_object.exit:  ; preds = %24, %19
  %.sink19 = phi ptr [ %21, %19 ], [ %25, %24 ]
  %.sink16 = phi i32 [ 16908312, %19 ], [ 131096, %24 ]
  %.sink = phi ptr [ %20, %19 ], [ inttoptr (i64 1 to ptr), %24 ]
  %28 = getelementptr inbounds nuw i8, ptr %.sink19, i64 4
  store i32 1, ptr %.sink19, align 4, !tbaa !36
  store i32 %.sink16, ptr %28, align 4
  %29 = getelementptr inbounds nuw i8, ptr %.sink19, i64 8
  store ptr %.sink, ptr %29, align 8, !tbaa !30
  %30 = getelementptr inbounds nuw i8, ptr %.sink19, i64 16
  store ptr inttoptr (i64 1 to ptr), ptr %30, align 8, !tbaa !30
  call void @llvm.lifetime.end.p0(i64 16, ptr nonnull %7) #15
  call void @llvm.lifetime.end.p0(i64 16, ptr nonnull %6) #15
  ret ptr %.sink19
}